; Function Attrs: mustprogress nounwind uwtable
define dso_local noundef ptr @_ZN5clang7CodeGen15CodeGenFunction18emitScalarConstantERKNS1_16ConstantEmissionEPNS_4ExprE(ptr noundef nonnull align 8 dereferenceable(6488) %0, ptr nocapture noundef nonnull readonly align 8 dereferenceable(8) %1, ptr noundef %2) local_unnamed_addr #0 align 2 {
  %4 = alloca %"class.clang::CodeGen::RValue", align 8
  %5 = alloca %"class.clang::CodeGen::LValue", align 8
  %.0.copyload.i.i.i.i = load i64, ptr %1, align 8
  %6 = and i64 %.0.copyload.i.i.i.i, 4
  %.not = icmp eq i64 %6, 0
  %7 = and i64 %.0.copyload.i.i.i.i, -8
  %8 = inttoptr i64 %7 to ptr
  br i1 %.not, label %13, label %9

9:                                                ; preds = %3
  %10 = getelementptr inbounds nuw i8, ptr %2, i64 8
  %.sroa.0.0.copyload.i.i = load i64, ptr %10, align 8, !noalias !1023
  call void @_ZN5clang7CodeGen15CodeGenFunction26MakeNaturalAlignAddrLValueEPN4llvm5ValueENS_8QualTypeENS0_14KnownNonNull_tE(ptr dead_on_unwind nonnull writable sret(%"class.clang::CodeGen::LValue") align 8 %5, ptr noundef nonnull align 8 dereferenceable(6488) %0, ptr noundef %8, i64 %.sroa.0.0.copyload.i.i, i32 noundef 0) #22
  %11 = call i32 @_ZNK5clang4Expr10getExprLocEv(ptr noundef nonnull align 8 dereferenceable(16) %2) #23
  call void @_ZN5clang7CodeGen15CodeGenFunction16EmitLoadOfLValueENS0_6LValueENS_14SourceLocationE(ptr dead_on_unwind nonnull writable sret(%"class.clang::CodeGen::RValue") align 8 %4, ptr noundef nonnull align 8 dereferenceable(6488) %0, ptr noundef nonnull byval(%"class.clang::CodeGen::LValue") align 8 %5, i32 %11)
  %12 = load ptr, ptr %4, align 8
  br label %13

13:                                               ; preds = %3, %9
  %.0 = phi ptr [ %12, %9 ], [ %8, %3 ]
  ret ptr %.0
}